target datalayout = "e-m:e-p270:32:32-p271:32:32-p272:64:64-i64:64-i128:128-f80:128-n8:16:32:64-S128"
target triple = "x86_64-pc-linux-gnu"

%struct.Trigger = type { i32, ptr, i32, i16, i8, i8, i8, i32, i32, i32, i8, i8, i16, i16, ptr, ptr, ptr, ptr, ptr }
%struct.TriggerDesc = type { ptr, i32, i8, i8, i8, i8, i8, i8, i8, i8, i8, i8, i8, i8, i8, i8, i8, i8, i8, i8, i8, i8, i8 }
%struct.TriggerData = type { i32, i32, ptr, ptr, ptr, ptr, ptr, ptr, ptr, ptr, ptr }
%struct.ResultRelInfo = type { i32, i32, ptr, i32, ptr, ptr, i16, ptr, i8, ptr, ptr, ptr, i8, i8, ptr, ptr, ptr, ptr, ptr, ptr, ptr, ptr, ptr, ptr, i8, i32, i32, i32, ptr, ptr, ptr, ptr, ptr, ptr, ptr, i32, i32, ptr, ptr, ptr, ptr, [3 x ptr], ptr, ptr, ptr, i8, ptr, i8, ptr, ptr, ptr, ptr }
%struct.EState = type { i32, i32, ptr, ptr, ptr, i32, ptr, ptr, ptr, ptr, ptr, ptr, ptr, ptr, ptr, ptr, i32, ptr, ptr, ptr, ptr, ptr, ptr, ptr, ptr, ptr, ptr, i64, i64, i32, i32, i8, ptr, ptr, ptr, ptr, ptr, i8, i32, i32, ptr, i32, ptr, ptr, ptr, ptr }
%struct.ExprContext = type { i32, ptr, ptr, ptr, ptr, ptr, ptr, ptr, ptr, ptr, i64, i8, i64, i8, ptr, ptr, ptr, ptr }

; Function Attrs: nounwind uwtable
define dso_local zeroext i1 @ExecBRDeleteTriggers(ptr noundef %0, ptr noundef %1, ptr noundef %2, ptr noundef %3, ptr noundef %4, ptr noundef %5, ptr noundef %6, ptr noundef %7) #0 {
  %9 = alloca i1, align 1
  %10 = alloca ptr, align 8
  %11 = alloca ptr, align 8
  %12 = alloca ptr, align 8
  %13 = alloca ptr, align 8
  %14 = alloca ptr, align 8
  %15 = alloca ptr, align 8
  %16 = alloca ptr, align 8
  %17 = alloca ptr, align 8
  %18 = alloca ptr, align 8
  %19 = alloca ptr, align 8
  %20 = alloca i8, align 1
  %21 = alloca %struct.TriggerData, align 8
  %22 = alloca ptr, align 8
  %23 = alloca i8, align 1
  %24 = alloca i32, align 4
  %25 = alloca ptr, align 8
  %26 = alloca i32, align 4
  %27 = alloca ptr, align 8
  %28 = alloca ptr, align 8
  store ptr %0, ptr %10, align 8
  store ptr %1, ptr %11, align 8
  store ptr %2, ptr %12, align 8
  store ptr %3, ptr %13, align 8
  store ptr %4, ptr %14, align 8
  store ptr %5, ptr %15, align 8
  store ptr %6, ptr %16, align 8
  store ptr %7, ptr %17, align 8
  call void @llvm.lifetime.start.p0(i64 8, ptr %18) #12
  %29 = load ptr, ptr %10, align 8
  %30 = load ptr, ptr %12, align 8
  %31 = call ptr @ExecGetTriggerOldSlot(ptr noundef %29, ptr noundef %30)
  store ptr %31, ptr %18, align 8
  call void @llvm.lifetime.start.p0(i64 8, ptr %19) #12
  %32 = load ptr, ptr %12, align 8
  %33 = getelementptr inbounds nuw %struct.ResultRelInfo, ptr %32, i32 0, i32 14
  %34 = load ptr, ptr %33, align 8
  store ptr %34, ptr %19, align 8
  call void @llvm.lifetime.start.p0(i64 1, ptr %20) #12
  store i8 1, ptr %20, align 1
  call void @llvm.lifetime.start.p0(i64 80, ptr %21) #12
  call void @llvm.memset.p0.i64(ptr align 8 %21, i8 0, i64 80, i1 false)
  call void @llvm.lifetime.start.p0(i64 8, ptr %22) #12
  call void @llvm.lifetime.start.p0(i64 1, ptr %23) #12
  store i8 0, ptr %23, align 1
  call void @llvm.lifetime.start.p0(i64 4, ptr %24) #12
  %35 = load ptr, ptr %14, align 8
  %36 = icmp eq ptr %35, null
  br i1 %36, label %37, label %62

37:                                               ; preds = %8
  call void @llvm.lifetime.start.p0(i64 8, ptr %25) #12
  store ptr null, ptr %25, align 8
  %38 = load ptr, ptr %10, align 8
  %39 = load ptr, ptr %11, align 8
  %40 = load ptr, ptr %12, align 8
  %41 = load ptr, ptr %13, align 8
  %42 = load ptr, ptr %18, align 8
  %43 = load ptr, ptr %16, align 8
  %44 = load ptr, ptr %17, align 8
  %45 = call zeroext i1 @GetTupleForTrigger(ptr noundef %38, ptr noundef %39, ptr noundef %40, ptr noundef %41, i32 noundef 3, ptr noundef %42, ptr noundef %25, ptr noundef %43, ptr noundef %44)
  br i1 %45, label %47, label %46

46:                                               ; preds = %37
  store i1 false, ptr %9, align 1
  store i32 1, ptr %26, align 4
  br label %59

47:                                               ; preds = %37
  %48 = load ptr, ptr %25, align 8
  %49 = icmp ne ptr %48, null
  br i1 %49, label %50, label %56

50:                                               ; preds = %47
  %51 = load ptr, ptr %15, align 8
  %52 = icmp ne ptr %51, null
  br i1 %52, label %53, label %56

53:                                               ; preds = %50
  %54 = load ptr, ptr %25, align 8
  %55 = load ptr, ptr %15, align 8
  store ptr %54, ptr %55, align 8
  store i1 false, ptr %9, align 1
  store i32 1, ptr %26, align 4
  br label %59

56:                                               ; preds = %50, %47
  %57 = load ptr, ptr %18, align 8
  %58 = call ptr @ExecFetchSlotHeapTuple(ptr noundef %57, i1 noundef zeroext true, ptr noundef %23)
  store ptr %58, ptr %22, align 8
  store i32 0, ptr %26, align 4
  br label %59

59:                                               ; preds = %56, %53, %46
  call void @llvm.lifetime.end.p0(i64 8, ptr %25) #12
  %60 = load i32, ptr %26, align 4
  switch i32 %60, label %156 [
    i32 0, label %61
  ]

61:                                               ; preds = %59
  br label %66

62:                                               ; preds = %8
  %63 = load ptr, ptr %14, align 8
  store ptr %63, ptr %22, align 8
  %64 = load ptr, ptr %22, align 8
  %65 = load ptr, ptr %18, align 8
  call void @ExecForceStoreHeapTuple(ptr noundef %64, ptr noundef %65, i1 noundef zeroext false)
  br label %66

66:                                               ; preds = %62, %61
  %67 = getelementptr inbounds nuw %struct.TriggerData, ptr %21, i32 0, i32 0
  store i32 441, ptr %67, align 8
  %68 = getelementptr inbounds nuw %struct.TriggerData, ptr %21, i32 0, i32 1
  store i32 13, ptr %68, align 4
  %69 = load ptr, ptr %12, align 8
  %70 = getelementptr inbounds nuw %struct.ResultRelInfo, ptr %69, i32 0, i32 2
  %71 = load ptr, ptr %70, align 8
  %72 = getelementptr inbounds nuw %struct.TriggerData, ptr %21, i32 0, i32 2
  store ptr %71, ptr %72, align 8
  store i32 0, ptr %24, align 4
  br label %73

73:                                               ; preds = %145, %66
  %74 = load i32, ptr %24, align 4
  %75 = load ptr, ptr %19, align 8
  %76 = getelementptr inbounds nuw %struct.TriggerDesc, ptr %75, i32 0, i32 1
  %77 = load i32, ptr %76, align 8
  %78 = icmp slt i32 %74, %77
  br i1 %78, label %79, label %148

79:                                               ; preds = %73
  call void @llvm.lifetime.start.p0(i64 8, ptr %27) #12
  call void @llvm.lifetime.start.p0(i64 8, ptr %28) #12
  %80 = load ptr, ptr %19, align 8
  %81 = getelementptr inbounds nuw %struct.TriggerDesc, ptr %80, i32 0, i32 0
  %82 = load ptr, ptr %81, align 8
  %83 = load i32, ptr %24, align 4
  %84 = sext i32 %83 to i64
  %85 = getelementptr inbounds %struct.Trigger, ptr %82, i64 %84
  store ptr %85, ptr %28, align 8
  %86 = load ptr, ptr %28, align 8
  %87 = getelementptr inbounds nuw %struct.Trigger, ptr %86, i32 0, i32 3
  %88 = load i16, ptr %87, align 4
  %89 = sext i16 %88 to i32
  %90 = and i32 %89, 75
  %91 = icmp eq i32 %90, 11
  br i1 %91, label %93, label %92

92:                                               ; preds = %79
  store i32 4, ptr %26, align 4
  br label %142

93:                                               ; preds = %79
  %94 = load ptr, ptr %10, align 8
  %95 = load ptr, ptr %12, align 8
  %96 = load ptr, ptr %28, align 8
  %97 = getelementptr inbounds nuw %struct.TriggerData, ptr %21, i32 0, i32 1
  %98 = load i32, ptr %97, align 4
  %99 = load ptr, ptr %18, align 8
  %100 = call zeroext i1 @TriggerEnabled(ptr noundef %94, ptr noundef %95, ptr noundef %96, i32 noundef %98, ptr noundef null, ptr noundef %99, ptr noundef null)
  br i1 %100, label %102, label %101

101:                                              ; preds = %93
  store i32 4, ptr %26, align 4
  br label %142

102:                                              ; preds = %93
  %103 = load ptr, ptr %18, align 8
  %104 = getelementptr inbounds nuw %struct.TriggerData, ptr %21, i32 0, i32 6
  store ptr %103, ptr %104, align 8
  %105 = load ptr, ptr %22, align 8
  %106 = getelementptr inbounds nuw %struct.TriggerData, ptr %21, i32 0, i32 3
  store ptr %105, ptr %106, align 8
  %107 = load ptr, ptr %28, align 8
  %108 = getelementptr inbounds nuw %struct.TriggerData, ptr %21, i32 0, i32 5
  store ptr %107, ptr %108, align 8
  %109 = load i32, ptr %24, align 4
  %110 = load ptr, ptr %12, align 8
  %111 = getelementptr inbounds nuw %struct.ResultRelInfo, ptr %110, i32 0, i32 15
  %112 = load ptr, ptr %111, align 8
  %113 = load ptr, ptr %12, align 8
  %114 = getelementptr inbounds nuw %struct.ResultRelInfo, ptr %113, i32 0, i32 17
  %115 = load ptr, ptr %114, align 8
  %116 = load ptr, ptr %10, align 8
  %117 = getelementptr inbounds nuw %struct.EState, ptr %116, i32 0, i32 35
  %118 = load ptr, ptr %117, align 8
  %119 = icmp ne ptr %118, null
  br i1 %119, label %120, label %124

120:                                              ; preds = %102
  %121 = load ptr, ptr %10, align 8
  %122 = getelementptr inbounds nuw %struct.EState, ptr %121, i32 0, i32 35
  %123 = load ptr, ptr %122, align 8
  br label %127

124:                                              ; preds = %102
  %125 = load ptr, ptr %10, align 8
  %126 = call ptr @MakePerTupleExprContext(ptr noundef %125)
  br label %127

127:                                              ; preds = %124, %120
  %128 = phi ptr [ %123, %120 ], [ %126, %124 ]
  %129 = getelementptr inbounds nuw %struct.ExprContext, ptr %128, i32 0, i32 5
  %130 = load ptr, ptr %129, align 8
  %131 = call ptr @ExecCallTriggerFunc(ptr noundef %21, i32 noundef %109, ptr noundef %112, ptr noundef %115, ptr noundef %130)
  store ptr %131, ptr %27, align 8
  %132 = load ptr, ptr %27, align 8
  %133 = icmp eq ptr %132, null
  br i1 %133, label %134, label %135

134:                                              ; preds = %127
  store i8 0, ptr %20, align 1
  store i32 2, ptr %26, align 4
  br label %142

135:                                              ; preds = %127
  %136 = load ptr, ptr %27, align 8
  %137 = load ptr, ptr %22, align 8
  %138 = icmp ne ptr %136, %137
  br i1 %138, label %139, label %141

139:                                              ; preds = %135
  %140 = load ptr, ptr %27, align 8
  call void @heap_freetuple(ptr noundef %140)
  br label %141

141:                                              ; preds = %139, %135
  store i32 0, ptr %26, align 4
  br label %142

142:                                              ; preds = %141, %134, %101, %92
  call void @llvm.lifetime.end.p0(i64 8, ptr %28) #12
  call void @llvm.lifetime.end.p0(i64 8, ptr %27) #12
  %143 = load i32, ptr %26, align 4
  switch i32 %143, label %158 [
    i32 0, label %144
    i32 4, label %145
    i32 2, label %148
  ]

144:                                              ; preds = %142
  br label %145

145:                                              ; preds = %144, %142
  %146 = load i32, ptr %24, align 4
  %147 = add i32 %146, 1
  store i32 %147, ptr %24, align 4
  br label %73, !llvm.loop !37

148:                                              ; preds = %142, %73
  %149 = load i8, ptr %23, align 1, !range !4, !noundef !5
  %150 = trunc i8 %149 to i1
  br i1 %150, label %151, label %153

151:                                              ; preds = %148
  %152 = load ptr, ptr %22, align 8
  call void @heap_freetuple(ptr noundef %152)
  br label %153

153:                                              ; preds = %151, %148
  %154 = load i8, ptr %20, align 1, !range !4, !noundef !5
  %155 = trunc i8 %154 to i1
  store i1 %155, ptr %9, align 1
  store i32 1, ptr %26, align 4
  br label %156

156:                                              ; preds = %153, %59
  call void @llvm.lifetime.end.p0(i64 4, ptr %24) #12
  call void @llvm.lifetime.end.p0(i64 1, ptr %23) #12
  call void @llvm.lifetime.end.p0(i64 8, ptr %22) #12
  call void @llvm.lifetime.end.p0(i64 80, ptr %21) #12
  call void @llvm.lifetime.end.p0(i64 1, ptr %20) #12
  call void @llvm.lifetime.end.p0(i64 8, ptr %19) #12
  call void @llvm.lifetime.end.p0(i64 8, ptr %18) #12
  %157 = load i1, ptr %9, align 1
  ret i1 %157

158:                                              ; preds = %142
  unreachable
}