; Function Attrs: nounwind uwtable
define dso_local noundef zeroext i1 @ExecBRDeleteTriggers(ptr noundef %0, ptr noundef %1, ptr noundef %2, ptr noundef %3, ptr noundef %4, ptr noundef writeonly captures(address_is_null) %5, ptr noundef captures(address_is_null) %6, ptr noundef captures(address_is_null) %7) local_unnamed_addr #0 {
  %9 = alloca %struct.TriggerData, align 8
  %10 = alloca i8, align 1
  %11 = alloca ptr, align 8
  %12 = tail call ptr @ExecGetTriggerOldSlot(ptr noundef %0, ptr noundef %2) #16
  %13 = getelementptr inbounds nuw i8, ptr %2, i64 96
  %14 = load ptr, ptr %13, align 8
  call void @llvm.lifetime.start.p0(i64 80, ptr nonnull %9) #16
  %15 = getelementptr inbounds nuw i8, ptr %9, i64 16
  call void @llvm.memset.p0.i64(ptr noundef nonnull align 8 dereferenceable(80) %15, i8 0, i64 64, i1 false)
  call void @llvm.lifetime.start.p0(i64 1, ptr nonnull %10) #16
  store i8 0, ptr %10, align 1
  %16 = icmp eq ptr %4, null
  br i1 %16, label %17, label %26

17:                                               ; preds = %8
  call void @llvm.lifetime.start.p0(i64 8, ptr nonnull %11) #16
  store ptr null, ptr %11, align 8
  %18 = call fastcc zeroext i1 @GetTupleForTrigger(ptr noundef %0, ptr noundef %1, ptr noundef nonnull %2, ptr noundef %3, i32 noundef 3, ptr noundef %12, ptr noundef nonnull %11, ptr noundef %6, ptr noundef %7)
  br i1 %18, label %19, label %.thread

19:                                               ; preds = %17
  %20 = load ptr, ptr %11, align 8
  %21 = icmp ne ptr %20, null
  %22 = icmp ne ptr %5, null
  %or.cond = and i1 %22, %21
  br i1 %or.cond, label %23, label %24

23:                                               ; preds = %19
  store ptr %20, ptr %5, align 8
  br label %.thread

.thread:                                          ; preds = %23, %17
  call void @llvm.lifetime.end.p0(i64 8, ptr nonnull %11) #16
  br label %72

24:                                               ; preds = %19
  %25 = call ptr @ExecFetchSlotHeapTuple(ptr noundef %12, i1 noundef zeroext true, ptr noundef nonnull %10) #16
  call void @llvm.lifetime.end.p0(i64 8, ptr nonnull %11) #16
  br label %27

26:                                               ; preds = %8
  tail call void @ExecForceStoreHeapTuple(ptr noundef nonnull %4, ptr noundef %12, i1 noundef zeroext false) #16
  br label %27

27:                                               ; preds = %24, %26
  %.152 = phi ptr [ %25, %24 ], [ %4, %26 ]
  store i32 441, ptr %9, align 8
  %28 = getelementptr inbounds nuw i8, ptr %9, i64 4
  store i32 13, ptr %28, align 4
  %29 = getelementptr inbounds nuw i8, ptr %2, i64 8
  %30 = load ptr, ptr %29, align 8
  %31 = getelementptr inbounds nuw i8, ptr %9, i64 8
  store ptr %30, ptr %31, align 8
  %32 = getelementptr inbounds nuw i8, ptr %14, i64 8
  %33 = load i32, ptr %32, align 8
  %34 = icmp slt i32 %33, 1
  br i1 %34, label %._crit_edge, label %.lr.ph

.lr.ph:                                           ; preds = %27
  %35 = getelementptr inbounds nuw i8, ptr %9, i64 40
  %36 = getelementptr inbounds nuw i8, ptr %9, i64 16
  %37 = getelementptr inbounds nuw i8, ptr %9, i64 32
  %38 = getelementptr inbounds nuw i8, ptr %2, i64 104
  %39 = getelementptr inbounds nuw i8, ptr %2, i64 120
  %40 = getelementptr inbounds nuw i8, ptr %0, i64 264
  br label %41

41:                                               ; preds = %.lr.ph, %66
  %indvars.iv = phi i64 [ 0, %.lr.ph ], [ %indvars.iv.next, %66 ]
  %42 = load ptr, ptr %14, align 8
  %43 = getelementptr inbounds nuw %struct.Trigger, ptr %42, i64 %indvars.iv
  %44 = getelementptr inbounds nuw i8, ptr %43, i64 20
  %45 = load i16, ptr %44, align 4
  %46 = and i16 %45, 75
  %47 = icmp eq i16 %46, 11
  br i1 %47, label %48, label %66

48:                                               ; preds = %41
  %49 = load i32, ptr %28, align 4
  %50 = call fastcc zeroext i1 @TriggerEnabled(ptr noundef %0, ptr noundef %2, ptr noundef nonnull %43, i32 noundef %49, ptr noundef null, ptr noundef %12, ptr noundef null)
  br i1 %50, label %51, label %66

51:                                               ; preds = %48
  store ptr %12, ptr %35, align 8
  store ptr %.152, ptr %36, align 8
  store ptr %43, ptr %37, align 8
  %52 = load ptr, ptr %38, align 8
  %53 = load ptr, ptr %39, align 8
  %54 = load ptr, ptr %40, align 8
  %.not = icmp eq ptr %54, null
  br i1 %.not, label %55, label %57

55:                                               ; preds = %51
  %56 = call ptr @MakePerTupleExprContext(ptr noundef nonnull %0) #16
  br label %57

57:                                               ; preds = %51, %55
  %58 = phi ptr [ %56, %55 ], [ %54, %51 ]
  %59 = getelementptr inbounds nuw i8, ptr %58, i64 40
  %60 = load ptr, ptr %59, align 8
  %61 = trunc nuw nsw i64 %indvars.iv to i32
  %62 = call fastcc ptr @ExecCallTriggerFunc(ptr noundef %9, i32 noundef %61, ptr noundef %52, ptr noundef %53, ptr noundef %60)
  %63 = icmp eq ptr %62, null
  br i1 %63, label %._crit_edge, label %64

64:                                               ; preds = %57
  %.not57 = icmp eq ptr %62, %.152
  br i1 %.not57, label %66, label %65

65:                                               ; preds = %64
  call void @heap_freetuple(ptr noundef nonnull %62) #16
  br label %66

66:                                               ; preds = %41, %48, %65, %64
  %indvars.iv.next = add nuw nsw i64 %indvars.iv, 1
  %67 = load i32, ptr %32, align 8
  %68 = sext i32 %67 to i64
  %.not70 = icmp slt i64 %indvars.iv.next, %68
  br i1 %.not70, label %41, label %._crit_edge, !llvm.loop !35

._crit_edge:                                      ; preds = %66, %57, %27
  %.lcssa = phi i1 [ true, %27 ], [ false, %57 ], [ true, %66 ]
  %69 = load i8, ptr %10, align 1, !range !4, !noundef !5
  %70 = trunc nuw i8 %69 to i1
  br i1 %70, label %71, label %72

71:                                               ; preds = %._crit_edge
  call void @heap_freetuple(ptr noundef %.152) #16
  br label %72

72:                                               ; preds = %._crit_edge, %71, %.thread
  %.1 = phi i1 [ false, %.thread ], [ %.lcssa, %71 ], [ %.lcssa, %._crit_edge ]
  call void @llvm.lifetime.end.p0(i64 1, ptr nonnull %10) #16
  call void @llvm.lifetime.end.p0(i64 80, ptr nonnull %9) #16
  ret i1 %.1
}